target datalayout = "e-m:e-p270:32:32-p271:32:32-p272:64:64-i64:64-i128:128-f80:128-n8:16:32:64-S128"
target triple = "x86_64-pc-linux-gnu"

%struct._capture_file = type { ptr, i32, ptr, ptr, i8, i8, i8, i64, i16, i32, i32, i32, ptr, i32, i64, i32, i32, i32, i32, i8, i32, %struct.nstime_t, i32, ptr, ptr, ptr, i8, i8, i32, ptr, i8, i8, i8, i8, i8, i32, i32, i8, ptr, i32, i32, i8, %struct.packet_provider_data, i32, i32, %struct.epan_column_info, ptr, ptr, ptr, %struct.wtap_rec, %struct.Buffer, ptr, i64, i32 }
%struct.nstime_t = type { i64, i32 }
%struct.packet_provider_data = type { ptr, ptr, ptr, ptr, ptr, ptr }
%struct.epan_column_info = type { ptr, i32, ptr, ptr, ptr, %struct.col_expr_t, i8, ptr }
%struct.col_expr_t = type { ptr, ptr }
%struct.wtap_rec = type { i32, i32, i32, %struct.nstime_t, i32, %struct.nstime_t, i8, %union.anon, ptr, i8, %struct.Buffer, %struct.Buffer }
%union.anon = type { %struct.wtap_packet_header }
%struct.wtap_packet_header = type { i32, i32, i32, i32, %union.wtap_pseudo_header }
%union.wtap_pseudo_header = type { %struct.erf_mc_phdr }
%struct.erf_mc_phdr = type { %struct.erf_phdr, [16 x %struct.erf_ehdr], %union.anon.1 }
%struct.erf_phdr = type { i64, i8, i8, i16, i16, i16 }
%struct.erf_ehdr = type { i64 }
%union.anon.1 = type { i32 }
%struct.Buffer = type { ptr, i64, i64, i64 }
%struct.col_item_t = type { i32, ptr, ptr, ptr, i32, ptr, ptr, ptr, ptr, i32, i8, i32 }
%struct.col_custom_t = type { ptr, ptr, i32 }
%struct._header_field_info = type { ptr, ptr, i32, i32, ptr, i64, ptr, i32, i32, i32, i32, ptr }

; Function Attrs: null_pointer_is_valid sspstrong uwtable
define hidden zeroext i1 @display_column_strings(i32 noundef %0, ptr noundef %1) #0 {
  %3 = alloca i1, align 1
  %4 = alloca i32, align 4
  %5 = alloca ptr, align 8
  %6 = alloca ptr, align 8
  %7 = alloca i8, align 1
  %8 = alloca i32, align 4
  %9 = alloca i32, align 4
  %10 = alloca ptr, align 8
  %11 = alloca i32, align 4
  store i32 %0, ptr %4, align 4
  store ptr %1, ptr %5, align 8
  call void @llvm.lifetime.start.p0(i64 8, ptr %6) #3
  call void @llvm.lifetime.start.p0(i64 1, ptr %7) #3
  store i8 0, ptr %7, align 1
  call void @llvm.lifetime.start.p0(i64 4, ptr %8) #3
  call void @llvm.lifetime.start.p0(i64 4, ptr %9) #3
  call void @llvm.lifetime.start.p0(i64 8, ptr %10) #3
  %12 = load ptr, ptr %5, align 8
  %13 = icmp ne ptr %12, null
  br i1 %13, label %15, label %14

14:                                               ; preds = %2
  store i1 false, ptr %3, align 1
  store i32 1, ptr %11, align 4
  br label %206

15:                                               ; preds = %2
  %16 = load ptr, ptr %5, align 8
  %17 = getelementptr inbounds nuw %struct._capture_file, ptr %16, i32 0, i32 45
  %18 = getelementptr inbounds nuw %struct.epan_column_info, ptr %17, i32 0, i32 2
  %19 = load ptr, ptr %18, align 8
  %20 = load i32, ptr %4, align 4
  %21 = sext i32 %20 to i64
  %22 = getelementptr %struct.col_item_t, ptr %19, i64 %21
  %23 = getelementptr inbounds nuw %struct.col_item_t, ptr %22, i32 0, i32 0
  %24 = load i32, ptr %23, align 8
  switch i32 %24, label %202 [
    i32 4, label %25
  ]

25:                                               ; preds = %15
  %26 = load ptr, ptr %5, align 8
  %27 = getelementptr inbounds nuw %struct._capture_file, ptr %26, i32 0, i32 45
  %28 = getelementptr inbounds nuw %struct.epan_column_info, ptr %27, i32 0, i32 2
  %29 = load ptr, ptr %28, align 8
  %30 = load i32, ptr %4, align 4
  %31 = sext i32 %30 to i64
  %32 = getelementptr %struct.col_item_t, ptr %29, i64 %31
  %33 = getelementptr inbounds nuw %struct.col_item_t, ptr %32, i32 0, i32 5
  %34 = load ptr, ptr %33, align 8
  %35 = call i32 @g_slist_length(ptr noundef %34)
  store i32 %35, ptr %8, align 4
  store i32 0, ptr %9, align 4
  br label %36

36:                                               ; preds = %198, %25
  %37 = load i32, ptr %9, align 4
  %38 = load i32, ptr %8, align 4
  %39 = icmp ult i32 %37, %38
  br i1 %39, label %40, label %201

40:                                               ; preds = %36
  %41 = load ptr, ptr %5, align 8
  %42 = getelementptr inbounds nuw %struct._capture_file, ptr %41, i32 0, i32 45
  %43 = getelementptr inbounds nuw %struct.epan_column_info, ptr %42, i32 0, i32 2
  %44 = load ptr, ptr %43, align 8
  %45 = load i32, ptr %4, align 4
  %46 = sext i32 %45 to i64
  %47 = getelementptr %struct.col_item_t, ptr %44, i64 %46
  %48 = getelementptr inbounds nuw %struct.col_item_t, ptr %47, i32 0, i32 5
  %49 = load ptr, ptr %48, align 8
  %50 = load i32, ptr %9, align 4
  %51 = call ptr @g_slist_nth_data(ptr noundef %49, i32 noundef %50)
  store ptr %51, ptr %10, align 8
  %52 = load ptr, ptr %10, align 8
  %53 = getelementptr inbounds nuw %struct.col_custom_t, ptr %52, i32 0, i32 2
  %54 = load i32, ptr %53, align 8
  %55 = icmp eq i32 %54, 0
  br i1 %55, label %56, label %57

56:                                               ; preds = %40
  br label %198

57:                                               ; preds = %40
  %58 = load ptr, ptr %10, align 8
  %59 = getelementptr inbounds nuw %struct.col_custom_t, ptr %58, i32 0, i32 2
  %60 = load i32, ptr %59, align 8
  %61 = call ptr @proto_registrar_get_nth(i32 noundef %60)
  store ptr %61, ptr %6, align 8
  %62 = load ptr, ptr %6, align 8
  %63 = getelementptr inbounds nuw %struct._header_field_info, ptr %62, i32 0, i32 2
  %64 = load i32, ptr %63, align 8
  %65 = icmp eq i32 %64, 37
  br i1 %65, label %196, label %66

66:                                               ; preds = %57
  %67 = load ptr, ptr %6, align 8
  %68 = getelementptr inbounds nuw %struct._header_field_info, ptr %67, i32 0, i32 2
  %69 = load i32, ptr %68, align 8
  %70 = icmp eq i32 %69, 41
  br i1 %70, label %196, label %71

71:                                               ; preds = %66
  %72 = load ptr, ptr %6, align 8
  %73 = getelementptr inbounds nuw %struct._header_field_info, ptr %72, i32 0, i32 2
  %74 = load i32, ptr %73, align 8
  %75 = icmp eq i32 %74, 29
  br i1 %75, label %196, label %76

76:                                               ; preds = %71
  %77 = load ptr, ptr %6, align 8
  %78 = getelementptr inbounds nuw %struct._header_field_info, ptr %77, i32 0, i32 2
  %79 = load i32, ptr %78, align 8
  %80 = icmp eq i32 %79, 30
  br i1 %80, label %196, label %81

81:                                               ; preds = %76
  %82 = load ptr, ptr %6, align 8
  %83 = getelementptr inbounds nuw %struct._header_field_info, ptr %82, i32 0, i32 2
  %84 = load i32, ptr %83, align 8
  %85 = icmp eq i32 %84, 32
  br i1 %85, label %196, label %86

86:                                               ; preds = %81
  %87 = load ptr, ptr %6, align 8
  %88 = getelementptr inbounds nuw %struct._header_field_info, ptr %87, i32 0, i32 2
  %89 = load i32, ptr %88, align 8
  %90 = icmp eq i32 %89, 33
  br i1 %90, label %196, label %91

91:                                               ; preds = %86
  %92 = load ptr, ptr %6, align 8
  %93 = getelementptr inbounds nuw %struct._header_field_info, ptr %92, i32 0, i32 2
  %94 = load i32, ptr %93, align 8
  %95 = icmp eq i32 %94, 44
  br i1 %95, label %196, label %96

96:                                               ; preds = %91
  %97 = load ptr, ptr %6, align 8
  %98 = getelementptr inbounds nuw %struct._header_field_info, ptr %97, i32 0, i32 2
  %99 = load i32, ptr %98, align 8
  %100 = icmp eq i32 %99, 2
  br i1 %100, label %196, label %101

101:                                              ; preds = %96
  %102 = load ptr, ptr %6, align 8
  %103 = getelementptr inbounds nuw %struct._header_field_info, ptr %102, i32 0, i32 4
  %104 = load ptr, ptr %103, align 8
  %105 = icmp ne ptr %104, null
  br i1 %105, label %106, label %197

106:                                              ; preds = %101
  %107 = load ptr, ptr %6, align 8
  %108 = getelementptr inbounds nuw %struct._header_field_info, ptr %107, i32 0, i32 2
  %109 = load i32, ptr %108, align 8
  %110 = icmp eq i32 %109, 12
  br i1 %110, label %196, label %111

111:                                              ; preds = %106
  %112 = load ptr, ptr %6, align 8
  %113 = getelementptr inbounds nuw %struct._header_field_info, ptr %112, i32 0, i32 2
  %114 = load i32, ptr %113, align 8
  %115 = icmp eq i32 %114, 13
  br i1 %115, label %196, label %116

116:                                              ; preds = %111
  %117 = load ptr, ptr %6, align 8
  %118 = getelementptr inbounds nuw %struct._header_field_info, ptr %117, i32 0, i32 2
  %119 = load i32, ptr %118, align 8
  %120 = icmp eq i32 %119, 14
  br i1 %120, label %196, label %121

121:                                              ; preds = %116
  %122 = load ptr, ptr %6, align 8
  %123 = getelementptr inbounds nuw %struct._header_field_info, ptr %122, i32 0, i32 2
  %124 = load i32, ptr %123, align 8
  %125 = icmp eq i32 %124, 15
  br i1 %125, label %196, label %126

126:                                              ; preds = %121
  %127 = load ptr, ptr %6, align 8
  %128 = getelementptr inbounds nuw %struct._header_field_info, ptr %127, i32 0, i32 2
  %129 = load i32, ptr %128, align 8
  %130 = icmp eq i32 %129, 16
  br i1 %130, label %196, label %131

131:                                              ; preds = %126
  %132 = load ptr, ptr %6, align 8
  %133 = getelementptr inbounds nuw %struct._header_field_info, ptr %132, i32 0, i32 2
  %134 = load i32, ptr %133, align 8
  %135 = icmp eq i32 %134, 17
  br i1 %135, label %196, label %136

136:                                              ; preds = %131
  %137 = load ptr, ptr %6, align 8
  %138 = getelementptr inbounds nuw %struct._header_field_info, ptr %137, i32 0, i32 2
  %139 = load i32, ptr %138, align 8
  %140 = icmp eq i32 %139, 18
  br i1 %140, label %196, label %141

141:                                              ; preds = %136
  %142 = load ptr, ptr %6, align 8
  %143 = getelementptr inbounds nuw %struct._header_field_info, ptr %142, i32 0, i32 2
  %144 = load i32, ptr %143, align 8
  %145 = icmp eq i32 %144, 19
  br i1 %145, label %196, label %146

146:                                              ; preds = %141
  %147 = load ptr, ptr %6, align 8
  %148 = getelementptr inbounds nuw %struct._header_field_info, ptr %147, i32 0, i32 2
  %149 = load i32, ptr %148, align 8
  %150 = icmp eq i32 %149, 3
  br i1 %150, label %196, label %151

151:                                              ; preds = %146
  %152 = load ptr, ptr %6, align 8
  %153 = getelementptr inbounds nuw %struct._header_field_info, ptr %152, i32 0, i32 2
  %154 = load i32, ptr %153, align 8
  %155 = icmp eq i32 %154, 4
  br i1 %155, label %196, label %156

156:                                              ; preds = %151
  %157 = load ptr, ptr %6, align 8
  %158 = getelementptr inbounds nuw %struct._header_field_info, ptr %157, i32 0, i32 2
  %159 = load i32, ptr %158, align 8
  %160 = icmp eq i32 %159, 5
  br i1 %160, label %196, label %161

161:                                              ; preds = %156
  %162 = load ptr, ptr %6, align 8
  %163 = getelementptr inbounds nuw %struct._header_field_info, ptr %162, i32 0, i32 2
  %164 = load i32, ptr %163, align 8
  %165 = icmp eq i32 %164, 6
  br i1 %165, label %196, label %166

166:                                              ; preds = %161
  %167 = load ptr, ptr %6, align 8
  %168 = getelementptr inbounds nuw %struct._header_field_info, ptr %167, i32 0, i32 2
  %169 = load i32, ptr %168, align 8
  %170 = icmp eq i32 %169, 7
  br i1 %170, label %196, label %171

171:                                              ; preds = %166
  %172 = load ptr, ptr %6, align 8
  %173 = getelementptr inbounds nuw %struct._header_field_info, ptr %172, i32 0, i32 2
  %174 = load i32, ptr %173, align 8
  %175 = icmp eq i32 %174, 35
  br i1 %175, label %196, label %176

176:                                              ; preds = %171
  %177 = load ptr, ptr %6, align 8
  %178 = getelementptr inbounds nuw %struct._header_field_info, ptr %177, i32 0, i32 2
  %179 = load i32, ptr %178, align 8
  %180 = icmp eq i32 %179, 8
  br i1 %180, label %196, label %181

181:                                              ; preds = %176
  %182 = load ptr, ptr %6, align 8
  %183 = getelementptr inbounds nuw %struct._header_field_info, ptr %182, i32 0, i32 2
  %184 = load i32, ptr %183, align 8
  %185 = icmp eq i32 %184, 9
  br i1 %185, label %196, label %186

186:                                              ; preds = %181
  %187 = load ptr, ptr %6, align 8
  %188 = getelementptr inbounds nuw %struct._header_field_info, ptr %187, i32 0, i32 2
  %189 = load i32, ptr %188, align 8
  %190 = icmp eq i32 %189, 10
  br i1 %190, label %196, label %191

191:                                              ; preds = %186
  %192 = load ptr, ptr %6, align 8
  %193 = getelementptr inbounds nuw %struct._header_field_info, ptr %192, i32 0, i32 2
  %194 = load i32, ptr %193, align 8
  %195 = icmp eq i32 %194, 11
  br i1 %195, label %196, label %197

196:                                              ; preds = %191, %186, %181, %176, %171, %166, %161, %156, %151, %146, %141, %136, %131, %126, %121, %116, %111, %106, %96, %91, %86, %81, %76, %71, %66, %57
  store i8 1, ptr %7, align 1
  br label %201

197:                                              ; preds = %191, %101
  br label %198

198:                                              ; preds = %197, %56
  %199 = load i32, ptr %9, align 4
  %200 = add i32 %199, 1
  store i32 %200, ptr %9, align 4
  br label %36, !llvm.loop !10

201:                                              ; preds = %196, %36
  br label %203

202:                                              ; preds = %15
  br label %203

203:                                              ; preds = %202, %201
  %204 = load i8, ptr %7, align 1, !range !8, !noundef !9
  %205 = trunc i8 %204 to i1
  store i1 %205, ptr %3, align 1
  store i32 1, ptr %11, align 4
  br label %206

206:                                              ; preds = %203, %14
  call void @llvm.lifetime.end.p0(i64 8, ptr %10) #3
  call void @llvm.lifetime.end.p0(i64 4, ptr %9) #3
  call void @llvm.lifetime.end.p0(i64 4, ptr %8) #3
  call void @llvm.lifetime.end.p0(i64 1, ptr %7) #3
  call void @llvm.lifetime.end.p0(i64 8, ptr %6) #3
  %207 = load i1, ptr %3, align 1
  ret i1 %207
}