; Function Attrs: null_pointer_is_valid sspstrong uwtable
define hidden noundef zeroext i1 @display_column_strings(i32 noundef %0, ptr noundef readonly captures(address_is_null) %1) local_unnamed_addr #0 {
  %.not = icmp eq ptr %1, null
  br i1 %.not, label %.loopexit, label %3

3:                                                ; preds = %2
  %4 = getelementptr inbounds nuw i8, ptr %1, i64 296
  %5 = load ptr, ptr %4, align 8
  %6 = sext i32 %0 to i64
  %7 = getelementptr %struct.col_item_t, ptr %5, i64 %6
  %8 = load i32, ptr %7, align 8
  %cond = icmp eq i32 %8, 4
  br i1 %cond, label %9, label %.loopexit

9:                                                ; preds = %3
  %10 = getelementptr inbounds nuw i8, ptr %7, i64 40
  %11 = load ptr, ptr %10, align 8
  %12 = tail call i32 @g_slist_length(ptr noundef %11)
  %.not100 = icmp eq i32 %12, 0
  br i1 %.not100, label %.loopexit, label %.lr.ph

.lr.ph:                                           ; preds = %9, %30
  %.04147 = phi i32 [ %31, %30 ], [ 0, %9 ]
  %13 = load ptr, ptr %4, align 8
  %14 = getelementptr %struct.col_item_t, ptr %13, i64 %6, i32 5
  %15 = load ptr, ptr %14, align 8
  %16 = tail call ptr @g_slist_nth_data(ptr noundef %15, i32 noundef %.04147)
  %17 = getelementptr inbounds nuw i8, ptr %16, i64 16
  %18 = load i32, ptr %17, align 8
  %19 = icmp eq i32 %18, 0
  br i1 %19, label %30, label %20

20:                                               ; preds = %.lr.ph
  %21 = tail call ptr @proto_registrar_get_nth(i32 noundef %18)
  %22 = getelementptr inbounds nuw i8, ptr %21, i64 16
  %23 = load i32, ptr %22, align 8
  %switch.tableidx = add i32 %23, -2
  %24 = icmp ult i32 %switch.tableidx, 43
  br i1 %24, label %switch.hole_check, label %25

25:                                               ; preds = %switch.hole_check, %20
  %26 = getelementptr inbounds nuw i8, ptr %21, i64 24
  %27 = load ptr, ptr %26, align 8
  %.not46 = icmp eq ptr %27, null
  br i1 %.not46, label %30, label %28

28:                                               ; preds = %25
  %switch.tableidx102 = add i32 %23, -3
  %29 = icmp ult i32 %switch.tableidx102, 33
  br i1 %29, label %switch.hole_check103, label %30

30:                                               ; preds = %switch.hole_check103, %28, %25, %.lr.ph
  %31 = add nuw i32 %.04147, 1
  %exitcond.not = icmp eq i32 %31, %12
  br i1 %exitcond.not, label %.loopexit, label %.lr.ph, !llvm.loop !8

switch.hole_check:                                ; preds = %20
  %switch.maskindex = zext nneg i32 %switch.tableidx to i64
  %switch.shifted = lshr i64 4985785942017, %switch.maskindex
  %switch.lobit = trunc i64 %switch.shifted to i1
  br i1 %switch.lobit, label %.loopexit, label %25

switch.hole_check103:                             ; preds = %28
  %switch.maskindex105 = zext nneg i32 %switch.tableidx102 to i64
  %switch.shifted106 = lshr i64 4295098367, %switch.maskindex105
  %switch.lobit107 = trunc i64 %switch.shifted106 to i1
  br i1 %switch.lobit107, label %.loopexit, label %30

.loopexit:                                        ; preds = %30, %switch.hole_check, %switch.hole_check103, %9, %3, %2
  %.0 = phi i1 [ false, %2 ], [ false, %3 ], [ false, %9 ], [ true, %switch.hole_check103 ], [ true, %switch.hole_check ], [ false, %30 ]
  ret i1 %.0
}